target datalayout = "e-m:e-p270:32:32-p271:32:32-p272:64:64-i64:64-i128:128-f80:128-n8:16:32:64-S128"
target triple = "x86_64-unknown-linux-gnu"

%"class.google::protobuf::io::ArrayInputStream" = type { %"class.google::protobuf::io::ZeroCopyInputStream", ptr, i32, i32, i32, i32 }
%"class.google::protobuf::io::ZeroCopyInputStream" = type { ptr }

@_ZTVN6google8protobuf2io19ZeroCopyInputStreamE = external unnamed_addr constant { [9 x ptr] }, align 8

; Function Attrs: mustprogress nounwind uwtable
define linkonce_odr hidden void @_ZN6google8protobuf2io19ZeroCopyInputStreamC2Ev(ptr noundef nonnull align 8 dereferenceable(8) %this) unnamed_addr #4 comdat align 2 {
entry:
  %this.addr = alloca ptr, align 8
  store ptr %this, ptr %this.addr, align 8
  %this1 = load ptr, ptr %this.addr, align 8
  store ptr getelementptr inbounds ({ [9 x ptr] }, ptr @_ZTVN6google8protobuf2io19ZeroCopyInputStreamE, i32 0, i32 0, i32 2), ptr %this1, align 8
  ret void
}

; Function Attrs: mustprogress nounwind uwtable
define void @_ZN6google8protobuf2io16ArrayInputStreamC2EPKvii(ptr noundef nonnull align 8 dereferenceable(32) %this, ptr noundef %data, i32 noundef %size, i32 noundef %block_size) unnamed_addr #4 align 2 {
entry:
  %this.addr = alloca ptr, align 8
  %data.addr = alloca ptr, align 8
  %size.addr = alloca i32, align 4
  %block_size.addr = alloca i32, align 4
  store ptr %this, ptr %this.addr, align 8
  store ptr %data, ptr %data.addr, align 8
  store i32 %size, ptr %size.addr, align 4
  store i32 %block_size, ptr %block_size.addr, align 4
  %this1 = load ptr, ptr %this.addr, align 8
  call void @_ZN6google8protobuf2io19ZeroCopyInputStreamC2Ev(ptr noundef nonnull align 8 dereferenceable(8) %this1) #3
  store ptr getelementptr inbounds ({ [9 x ptr] }, ptr @_ZTVN6google8protobuf2io16ArrayInputStreamE, i32 0, i32 0, i32 2), ptr %this1, align 8
  %data_ = getelementptr inbounds %"class.google::protobuf::io::ArrayInputStream", ptr %this1, i32 0, i32 1
  %0 = load ptr, ptr %data.addr, align 8
  store ptr %0, ptr %data_, align 8
  %size_ = getelementptr inbounds %"class.google::protobuf::io::ArrayInputStream", ptr %this1, i32 0, i32 2
  %1 = load i32, ptr %size.addr, align 4
  store i32 %1, ptr %size_, align 8
  %block_size_ = getelementptr inbounds %"class.google::protobuf::io::ArrayInputStream", ptr %this1, i32 0, i32 3
  %2 = load i32, ptr %block_size.addr, align 4
  %cmp = icmp sgt i32 %2, 0
  br i1 %cmp, label %cond.true, label %cond.false

cond.true:                                        ; preds = %entry
  %3 = load i32, ptr %block_size.addr, align 4
  br label %cond.end

cond.false:                                       ; preds = %entry
  %4 = load i32, ptr %size.addr, align 4
  br label %cond.end

cond.end:                                         ; preds = %cond.false, %cond.true
  %cond = phi i32 [ %3, %cond.true ], [ %4, %cond.false ]
  store i32 %cond, ptr %block_size_, align 4
  %position_ = getelementptr inbounds %"class.google::protobuf::io::ArrayInputStream", ptr %this1, i32 0, i32 4
  store i32 0, ptr %position_, align 8
  %last_returned_size_ = getelementptr inbounds %"class.google::protobuf::io::ArrayInputStream", ptr %this1, i32 0, i32 5
  store i32 0, ptr %last_returned_size_, align 4
  ret void
}