; Function Attrs: mustprogress nofree norecurse nosync nounwind willreturn memory(argmem: write) uwtable
define void @_ZN6google8protobuf2io16ArrayInputStreamC2EPKvii(ptr nocapture noundef nonnull writeonly align 8 dereferenceable(32) %this, ptr noundef %data, i32 noundef %size, i32 noundef %block_size) unnamed_addr #3 align 2 {
entry:
  store ptr getelementptr inbounds ({ [9 x ptr] }, ptr @_ZTVN6google8protobuf2io16ArrayInputStreamE, i64 0, i32 0, i64 2), ptr %this, align 8
  %data_ = getelementptr inbounds i8, ptr %this, i64 8
  store ptr %data, ptr %data_, align 8
  %size_ = getelementptr inbounds i8, ptr %this, i64 16
  store i32 %size, ptr %size_, align 8
  %block_size_ = getelementptr inbounds i8, ptr %this, i64 20
  %cmp = icmp sgt i32 %block_size, 0
  %cond = select i1 %cmp, i32 %block_size, i32 %size
  store i32 %cond, ptr %block_size_, align 4
  %position_ = getelementptr inbounds i8, ptr %this, i64 24
  store i32 0, ptr %position_, align 8
  %last_returned_size_ = getelementptr inbounds i8, ptr %this, i64 28
  store i32 0, ptr %last_returned_size_, align 4
  ret void
}